target datalayout = "e-m:e-p270:32:32-p271:32:32-p272:64:64-i64:64-i128:128-f80:128-n8:16:32:64-S128"
target triple = "x86_64-pc-linux-gnu"

%struct.TupleTableSlotOps = type { i64, ptr, ptr, ptr, ptr, ptr, ptr, ptr, ptr, ptr, ptr, ptr, ptr }
%struct.ResultRelInfo = type { i32, i32, ptr, i32, ptr, ptr, i16, ptr, i8, ptr, ptr, ptr, i8, i8, ptr, ptr, ptr, ptr, ptr, ptr, ptr, ptr, ptr, ptr, i8, i32, i32, i32, ptr, ptr, ptr, ptr, ptr, ptr, ptr, i32, i32, ptr, ptr, ptr, ptr, [3 x ptr], ptr, ptr, ptr, i8, ptr, i8, ptr, ptr, ptr, ptr }
%struct.TupleDescData = type { i32, i32, i32, i32, ptr, [0 x %struct.CompactAttribute] }
%struct.CompactAttribute = type { i32, i16, i8, i8, i8, i8, i8, i8, i8 }
%struct.ExprContext = type { i32, ptr, ptr, ptr, ptr, ptr, ptr, ptr, ptr, ptr, i64, i8, i64, i8, ptr, ptr, ptr, ptr }
%struct.TupleTableSlot = type { i32, i16, i16, ptr, ptr, ptr, ptr, ptr, %struct.ItemPointerData, i32 }
%struct.ItemPointerData = type { %struct.BlockIdData, i16 }
%struct.BlockIdData = type { i16, i16 }
%struct.ExprState = type { i32, i8, i8, i64, ptr, ptr, ptr, ptr, ptr, i32, i32, ptr, ptr, ptr, ptr, ptr, ptr, ptr }
%struct.ProjectionInfo = type { i32, %struct.ExprState, ptr }
%struct.ModifyTableContext = type { ptr, ptr, ptr, ptr, %struct.TM_FailureData, ptr, ptr }
%struct.TM_FailureData = type { %struct.ItemPointerData, i32, i32, i8 }

@.str.1 = private unnamed_addr constant [18 x i8] c"nodeModifyTable.c\00", align 1
@CurrentMemoryContext = external global ptr, align 8
@.str.29 = private unnamed_addr constant [29 x i8] c"unrecognized commandType: %d\00", align 1
@__func__.ExecProcessReturning = private unnamed_addr constant [21 x i8] c"ExecProcessReturning\00", align 1

; Function Attrs: inlinehint nounwind uwtable
define internal ptr @MemoryContextSwitchTo(ptr noundef %0) #3 {
  %2 = alloca ptr, align 8
  %3 = alloca ptr, align 8
  store ptr %0, ptr %2, align 8
  call void @llvm.lifetime.start.p0(i64 8, ptr %3) #8
  %4 = load ptr, ptr @CurrentMemoryContext, align 8
  store ptr %4, ptr %3, align 8
  %5 = load ptr, ptr %2, align 8
  store ptr %5, ptr @CurrentMemoryContext, align 8
  %6 = load ptr, ptr %3, align 8
  call void @llvm.lifetime.end.p0(i64 8, ptr %3) #8
  ret ptr %6
}

; Function Attrs: inlinehint nounwind uwtable
define internal i64 @ExecEvalExprSwitchContext(ptr noundef %0, ptr noundef %1, ptr noundef %2) #3 {
  %4 = alloca ptr, align 8
  %5 = alloca ptr, align 8
  %6 = alloca ptr, align 8
  %7 = alloca i64, align 8
  %8 = alloca ptr, align 8
  store ptr %0, ptr %4, align 8
  store ptr %1, ptr %5, align 8
  store ptr %2, ptr %6, align 8
  call void @llvm.lifetime.start.p0(i64 8, ptr %7) #8
  call void @llvm.lifetime.start.p0(i64 8, ptr %8) #8
  %9 = load ptr, ptr %5, align 8
  %10 = getelementptr inbounds nuw %struct.ExprContext, ptr %9, i32 0, i32 5
  %11 = load ptr, ptr %10, align 8
  %12 = call ptr @MemoryContextSwitchTo(ptr noundef %11)
  store ptr %12, ptr %8, align 8
  %13 = load ptr, ptr %4, align 8
  %14 = getelementptr inbounds nuw %struct.ExprState, ptr %13, i32 0, i32 6
  %15 = load ptr, ptr %14, align 8
  %16 = load ptr, ptr %4, align 8
  %17 = load ptr, ptr %5, align 8
  %18 = load ptr, ptr %6, align 8
  %19 = call i64 %15(ptr noundef %16, ptr noundef %17, ptr noundef %18)
  store i64 %19, ptr %7, align 8
  %20 = load ptr, ptr %8, align 8
  %21 = call ptr @MemoryContextSwitchTo(ptr noundef %20)
  %22 = load i64, ptr %7, align 8
  call void @llvm.lifetime.end.p0(i64 8, ptr %8) #8
  call void @llvm.lifetime.end.p0(i64 8, ptr %7) #8
  ret i64 %22
}

; Function Attrs: inlinehint nounwind uwtable
define internal ptr @ExecClearTuple(ptr noundef %0) #3 {
  %2 = alloca ptr, align 8
  store ptr %0, ptr %2, align 8
  %3 = load ptr, ptr %2, align 8
  %4 = getelementptr inbounds nuw %struct.TupleTableSlot, ptr %3, i32 0, i32 3
  %5 = load ptr, ptr %4, align 8
  %6 = getelementptr inbounds nuw %struct.TupleTableSlotOps, ptr %5, i32 0, i32 3
  %7 = load ptr, ptr %6, align 8
  %8 = load ptr, ptr %2, align 8
  call void %7(ptr noundef %8)
  %9 = load ptr, ptr %2, align 8
  ret ptr %9
}

; Function Attrs: inlinehint nounwind uwtable
define internal ptr @ExecProject(ptr noundef %0) #3 {
  %2 = alloca ptr, align 8
  %3 = alloca ptr, align 8
  %4 = alloca ptr, align 8
  %5 = alloca ptr, align 8
  %6 = alloca i8, align 1
  store ptr %0, ptr %2, align 8
  call void @llvm.lifetime.start.p0(i64 8, ptr %3) #8
  %7 = load ptr, ptr %2, align 8
  %8 = getelementptr inbounds nuw %struct.ProjectionInfo, ptr %7, i32 0, i32 2
  %9 = load ptr, ptr %8, align 8
  store ptr %9, ptr %3, align 8
  call void @llvm.lifetime.start.p0(i64 8, ptr %4) #8
  %10 = load ptr, ptr %2, align 8
  %11 = getelementptr inbounds nuw %struct.ProjectionInfo, ptr %10, i32 0, i32 1
  store ptr %11, ptr %4, align 8
  call void @llvm.lifetime.start.p0(i64 8, ptr %5) #8
  %12 = load ptr, ptr %4, align 8
  %13 = getelementptr inbounds nuw %struct.ExprState, ptr %12, i32 0, i32 4
  %14 = load ptr, ptr %13, align 8
  store ptr %14, ptr %5, align 8
  call void @llvm.lifetime.start.p0(i64 1, ptr %6) #8
  %15 = load ptr, ptr %5, align 8
  %16 = call ptr @ExecClearTuple(ptr noundef %15)
  %17 = load ptr, ptr %4, align 8
  %18 = load ptr, ptr %3, align 8
  %19 = call i64 @ExecEvalExprSwitchContext(ptr noundef %17, ptr noundef %18, ptr noundef %6)
  %20 = load ptr, ptr %5, align 8
  %21 = getelementptr inbounds nuw %struct.TupleTableSlot, ptr %20, i32 0, i32 1
  %22 = load i16, ptr %21, align 4
  %23 = zext i16 %22 to i32
  %24 = and i32 %23, -3
  %25 = trunc i32 %24 to i16
  store i16 %25, ptr %21, align 4
  %26 = load ptr, ptr %5, align 8
  %27 = getelementptr inbounds nuw %struct.TupleTableSlot, ptr %26, i32 0, i32 4
  %28 = load ptr, ptr %27, align 8
  %29 = getelementptr inbounds nuw %struct.TupleDescData, ptr %28, i32 0, i32 0
  %30 = load i32, ptr %29, align 8
  %31 = trunc i32 %30 to i16
  %32 = load ptr, ptr %5, align 8
  %33 = getelementptr inbounds nuw %struct.TupleTableSlot, ptr %32, i32 0, i32 2
  store i16 %31, ptr %33, align 2
  %34 = load ptr, ptr %5, align 8
  call void @llvm.lifetime.end.p0(i64 1, ptr %6) #8
  call void @llvm.lifetime.end.p0(i64 8, ptr %5) #8
  call void @llvm.lifetime.end.p0(i64 8, ptr %4) #8
  call void @llvm.lifetime.end.p0(i64 8, ptr %3) #8
  ret ptr %34
}

; Function Attrs: nounwind uwtable
define internal ptr @ExecProcessReturning(ptr noundef %0, ptr noundef %1, i32 noundef %2, ptr noundef %3, ptr noundef %4, ptr noundef %5) #0 {
  %7 = alloca ptr, align 8
  %8 = alloca ptr, align 8
  %9 = alloca i32, align 4
  %10 = alloca ptr, align 8
  %11 = alloca ptr, align 8
  %12 = alloca ptr, align 8
  %13 = alloca ptr, align 8
  %14 = alloca ptr, align 8
  %15 = alloca ptr, align 8
  store ptr %0, ptr %7, align 8
  store ptr %1, ptr %8, align 8
  store i32 %2, ptr %9, align 4
  store ptr %3, ptr %10, align 8
  store ptr %4, ptr %11, align 8
  store ptr %5, ptr %12, align 8
  call void @llvm.lifetime.start.p0(i64 8, ptr %13) #8
  %16 = load ptr, ptr %7, align 8
  %17 = getelementptr inbounds nuw %struct.ModifyTableContext, ptr %16, i32 0, i32 2
  %18 = load ptr, ptr %17, align 8
  store ptr %18, ptr %13, align 8
  call void @llvm.lifetime.start.p0(i64 8, ptr %14) #8
  %19 = load ptr, ptr %8, align 8
  %20 = getelementptr inbounds nuw %struct.ResultRelInfo, ptr %19, i32 0, i32 38
  %21 = load ptr, ptr %20, align 8
  store ptr %21, ptr %14, align 8
  call void @llvm.lifetime.start.p0(i64 8, ptr %15) #8
  %22 = load ptr, ptr %14, align 8
  %23 = getelementptr inbounds nuw %struct.ProjectionInfo, ptr %22, i32 0, i32 2
  %24 = load ptr, ptr %23, align 8
  store ptr %24, ptr %15, align 8
  %25 = load i32, ptr %9, align 4
  switch i32 %25, label %42 [
    i32 3, label %26
    i32 2, label %26
    i32 4, label %34
  ]

26:                                               ; preds = %6, %6
  %27 = load ptr, ptr %11, align 8
  %28 = icmp ne ptr %27, null
  br i1 %28, label %29, label %33

29:                                               ; preds = %26
  %30 = load ptr, ptr %11, align 8
  %31 = load ptr, ptr %15, align 8
  %32 = getelementptr inbounds nuw %struct.ExprContext, ptr %31, i32 0, i32 1
  store ptr %30, ptr %32, align 8
  br label %33

33:                                               ; preds = %29, %26
  br label %54

34:                                               ; preds = %6
  %35 = load ptr, ptr %10, align 8
  %36 = icmp ne ptr %35, null
  br i1 %36, label %37, label %41

37:                                               ; preds = %34
  %38 = load ptr, ptr %10, align 8
  %39 = load ptr, ptr %15, align 8
  %40 = getelementptr inbounds nuw %struct.ExprContext, ptr %39, i32 0, i32 1
  store ptr %38, ptr %40, align 8
  br label %41

41:                                               ; preds = %37, %34
  br label %54

42:                                               ; preds = %6
  br label %43

43:                                               ; preds = %42
  br i1 true, label %44, label %46

44:                                               ; preds = %43
  %45 = call zeroext i1 @errstart_cold(i32 noundef 21, ptr noundef null) #9
  br i1 %45, label %48, label %51

46:                                               ; preds = %43
  %47 = call zeroext i1 @errstart(i32 noundef 21, ptr noundef null)
  br i1 %47, label %48, label %51

48:                                               ; preds = %46, %44
  %49 = load i32, ptr %9, align 4
  %50 = call i32 (ptr, ...) @errmsg_internal(ptr noundef @.str.29, i32 noundef %49)
  call void @errfinish(ptr noundef @.str.1, i32 noundef 295, ptr noundef @__func__.ExecProcessReturning)
  br label %51

51:                                               ; preds = %48, %46, %44
  unreachable

52:                                               ; No predecessors!
  br label %53

53:                                               ; preds = %52
  br label %54

54:                                               ; preds = %53, %41, %33
  %55 = load ptr, ptr %12, align 8
  %56 = load ptr, ptr %15, align 8
  %57 = getelementptr inbounds nuw %struct.ExprContext, ptr %56, i32 0, i32 3
  store ptr %55, ptr %57, align 8
  %58 = load ptr, ptr %10, align 8
  %59 = icmp ne ptr %58, null
  br i1 %59, label %60, label %64

60:                                               ; preds = %54
  %61 = load ptr, ptr %10, align 8
  %62 = load ptr, ptr %15, align 8
  %63 = getelementptr inbounds nuw %struct.ExprContext, ptr %62, i32 0, i32 14
  store ptr %61, ptr %63, align 8
  br label %82

64:                                               ; preds = %54
  %65 = load ptr, ptr %14, align 8
  %66 = getelementptr inbounds nuw %struct.ProjectionInfo, ptr %65, i32 0, i32 1
  %67 = getelementptr inbounds nuw %struct.ExprState, ptr %66, i32 0, i32 1
  %68 = load i8, ptr %67, align 4
  %69 = zext i8 %68 to i32
  %70 = and i32 %69, 2
  %71 = icmp ne i32 %70, 0
  br i1 %71, label %72, label %78

72:                                               ; preds = %64
  %73 = load ptr, ptr %13, align 8
  %74 = load ptr, ptr %8, align 8
  %75 = call ptr @ExecGetAllNullSlot(ptr noundef %73, ptr noundef %74)
  %76 = load ptr, ptr %15, align 8
  %77 = getelementptr inbounds nuw %struct.ExprContext, ptr %76, i32 0, i32 14
  store ptr %75, ptr %77, align 8
  br label %81

78:                                               ; preds = %64
  %79 = load ptr, ptr %15, align 8
  %80 = getelementptr inbounds nuw %struct.ExprContext, ptr %79, i32 0, i32 14
  store ptr null, ptr %80, align 8
  br label %81

81:                                               ; preds = %78, %72
  br label %82

82:                                               ; preds = %81, %60
  %83 = load ptr, ptr %11, align 8
  %84 = icmp ne ptr %83, null
  br i1 %84, label %85, label %89

85:                                               ; preds = %82
  %86 = load ptr, ptr %11, align 8
  %87 = load ptr, ptr %15, align 8
  %88 = getelementptr inbounds nuw %struct.ExprContext, ptr %87, i32 0, i32 15
  store ptr %86, ptr %88, align 8
  br label %107

89:                                               ; preds = %82
  %90 = load ptr, ptr %14, align 8
  %91 = getelementptr inbounds nuw %struct.ProjectionInfo, ptr %90, i32 0, i32 1
  %92 = getelementptr inbounds nuw %struct.ExprState, ptr %91, i32 0, i32 1
  %93 = load i8, ptr %92, align 4
  %94 = zext i8 %93 to i32
  %95 = and i32 %94, 4
  %96 = icmp ne i32 %95, 0
  br i1 %96, label %97, label %103

97:                                               ; preds = %89
  %98 = load ptr, ptr %13, align 8
  %99 = load ptr, ptr %8, align 8
  %100 = call ptr @ExecGetAllNullSlot(ptr noundef %98, ptr noundef %99)
  %101 = load ptr, ptr %15, align 8
  %102 = getelementptr inbounds nuw %struct.ExprContext, ptr %101, i32 0, i32 15
  store ptr %100, ptr %102, align 8
  br label %106

103:                                              ; preds = %89
  %104 = load ptr, ptr %15, align 8
  %105 = getelementptr inbounds nuw %struct.ExprContext, ptr %104, i32 0, i32 15
  store ptr null, ptr %105, align 8
  br label %106

106:                                              ; preds = %103, %97
  br label %107

107:                                              ; preds = %106, %85
  %108 = load ptr, ptr %10, align 8
  %109 = icmp eq ptr %108, null
  br i1 %109, label %110, label %118

110:                                              ; preds = %107
  %111 = load ptr, ptr %14, align 8
  %112 = getelementptr inbounds nuw %struct.ProjectionInfo, ptr %111, i32 0, i32 1
  %113 = getelementptr inbounds nuw %struct.ExprState, ptr %112, i32 0, i32 1
  %114 = load i8, ptr %113, align 4
  %115 = zext i8 %114 to i32
  %116 = or i32 %115, 8
  %117 = trunc i32 %116 to i8
  store i8 %117, ptr %113, align 4
  br label %126

118:                                              ; preds = %107
  %119 = load ptr, ptr %14, align 8
  %120 = getelementptr inbounds nuw %struct.ProjectionInfo, ptr %119, i32 0, i32 1
  %121 = getelementptr inbounds nuw %struct.ExprState, ptr %120, i32 0, i32 1
  %122 = load i8, ptr %121, align 4
  %123 = zext i8 %122 to i32
  %124 = and i32 %123, -9
  %125 = trunc i32 %124 to i8
  store i8 %125, ptr %121, align 4
  br label %126

126:                                              ; preds = %118, %110
  %127 = load ptr, ptr %11, align 8
  %128 = icmp eq ptr %127, null
  br i1 %128, label %129, label %137

129:                                              ; preds = %126
  %130 = load ptr, ptr %14, align 8
  %131 = getelementptr inbounds nuw %struct.ProjectionInfo, ptr %130, i32 0, i32 1
  %132 = getelementptr inbounds nuw %struct.ExprState, ptr %131, i32 0, i32 1
  %133 = load i8, ptr %132, align 4
  %134 = zext i8 %133 to i32
  %135 = or i32 %134, 16
  %136 = trunc i32 %135 to i8
  store i8 %136, ptr %132, align 4
  br label %145

137:                                              ; preds = %126
  %138 = load ptr, ptr %14, align 8
  %139 = getelementptr inbounds nuw %struct.ProjectionInfo, ptr %138, i32 0, i32 1
  %140 = getelementptr inbounds nuw %struct.ExprState, ptr %139, i32 0, i32 1
  %141 = load i8, ptr %140, align 4
  %142 = zext i8 %141 to i32
  %143 = and i32 %142, -17
  %144 = trunc i32 %143 to i8
  store i8 %144, ptr %140, align 4
  br label %145

145:                                              ; preds = %137, %129
  %146 = load ptr, ptr %14, align 8
  %147 = call ptr @ExecProject(ptr noundef %146)
  call void @llvm.lifetime.end.p0(i64 8, ptr %15) #8
  call void @llvm.lifetime.end.p0(i64 8, ptr %14) #8
  call void @llvm.lifetime.end.p0(i64 8, ptr %13) #8
  ret ptr %147
}