; Function Attrs: nounwind uwtable
define internal fastcc noundef ptr @ExecProcessReturning(ptr %.16.val, ptr noundef %0, i32 noundef %1, ptr noundef %2, ptr noundef %3, ptr noundef %4) unnamed_addr #0 {
  %6 = alloca i8, align 1
  %7 = getelementptr inbounds nuw i8, ptr %0, i64 264
  %8 = load ptr, ptr %7, align 8
  %9 = getelementptr inbounds nuw i8, ptr %8, i64 128
  %10 = load ptr, ptr %9, align 8
  switch i32 %1, label %18 [
    i32 3, label %11
    i32 2, label %11
    i32 4, label %14
  ]

11:                                               ; preds = %5, %5
  %.not37 = icmp eq ptr %3, null
  br i1 %.not37, label %21, label %12

12:                                               ; preds = %11
  %13 = getelementptr inbounds nuw i8, ptr %10, i64 8
  store ptr %3, ptr %13, align 8
  br label %21

14:                                               ; preds = %5
  %.not = icmp eq ptr %2, null
  br i1 %.not, label %.thread, label %.thread4

.thread:                                          ; preds = %14
  %15 = getelementptr inbounds nuw i8, ptr %10, i64 24
  store ptr %4, ptr %15, align 8
  br label %23

.thread4:                                         ; preds = %14
  %16 = getelementptr inbounds nuw i8, ptr %10, i64 8
  store ptr %2, ptr %16, align 8
  %17 = getelementptr inbounds nuw i8, ptr %10, i64 24
  store ptr %4, ptr %17, align 8
  br label %29

18:                                               ; preds = %5
  %19 = tail call zeroext i1 @errstart_cold(i32 noundef 21, ptr noundef null) #10
  tail call void @llvm.assume(i1 %19)
  %20 = tail call i32 (ptr, ...) @errmsg_internal(ptr noundef nonnull @.str.29, i32 noundef %1) #9
  tail call void @errfinish(ptr noundef nonnull @.str.1, i32 noundef 295, ptr noundef nonnull @__func__.ExecProcessReturning) #9
  unreachable

21:                                               ; preds = %11, %12
  %22 = getelementptr inbounds nuw i8, ptr %10, i64 24
  store ptr %4, ptr %22, align 8
  %.not38 = icmp eq ptr %2, null
  br i1 %.not38, label %23, label %29

23:                                               ; preds = %.thread, %21
  %24 = getelementptr inbounds nuw i8, ptr %8, i64 12
  %25 = load i8, ptr %24, align 4
  %26 = and i8 %25, 2
  %.not39 = icmp eq i8 %26, 0
  br i1 %.not39, label %29, label %27

27:                                               ; preds = %23
  %28 = tail call ptr @ExecGetAllNullSlot(ptr noundef %.16.val, ptr noundef nonnull %0) #9
  br label %29

29:                                               ; preds = %23, %21, %.thread4, %27
  %.sink = phi ptr [ %28, %27 ], [ %2, %.thread4 ], [ %2, %21 ], [ null, %23 ]
  %.not382 = phi i8 [ 8, %27 ], [ 0, %.thread4 ], [ 0, %21 ], [ 8, %23 ]
  %30 = getelementptr inbounds nuw i8, ptr %10, i64 112
  store ptr %.sink, ptr %30, align 8
  %.not40 = icmp eq ptr %3, null
  br i1 %.not40, label %31, label %37

31:                                               ; preds = %29
  %32 = getelementptr inbounds nuw i8, ptr %8, i64 12
  %33 = load i8, ptr %32, align 4
  %34 = and i8 %33, 4
  %.not41 = icmp eq i8 %34, 0
  br i1 %.not41, label %37, label %35

35:                                               ; preds = %31
  %36 = tail call ptr @ExecGetAllNullSlot(ptr noundef %.16.val, ptr noundef nonnull %0) #9
  br label %37

37:                                               ; preds = %31, %29, %35
  %masksel = phi i8 [ 16, %35 ], [ 0, %29 ], [ 16, %31 ]
  %.sink8 = phi ptr [ %36, %35 ], [ %3, %29 ], [ null, %31 ]
  %38 = getelementptr inbounds nuw i8, ptr %10, i64 120
  store ptr %.sink8, ptr %38, align 8
  %39 = getelementptr inbounds nuw i8, ptr %8, i64 12
  %40 = load i8, ptr %39, align 4
  %41 = and i8 %40, -25
  %42 = or disjoint i8 %41, %.not382
  %43 = getelementptr inbounds nuw i8, ptr %8, i64 12
  %.sink10 = or disjoint i8 %42, %masksel
  store i8 %.sink10, ptr %43, align 4
  %44 = load ptr, ptr %9, align 8
  %45 = getelementptr inbounds nuw i8, ptr %8, i64 8
  %46 = getelementptr inbounds nuw i8, ptr %8, i64 24
  %47 = load ptr, ptr %46, align 8
  call void @llvm.lifetime.start.p0(i64 1, ptr nonnull %6) #9
  %48 = getelementptr inbounds nuw i8, ptr %47, i64 8
  %49 = load ptr, ptr %48, align 8
  %50 = getelementptr inbounds nuw i8, ptr %49, i64 24
  %51 = load ptr, ptr %50, align 8
  tail call void %51(ptr noundef %47) #9
  %52 = getelementptr inbounds nuw i8, ptr %44, i64 40
  %53 = load ptr, ptr %52, align 8
  %54 = load ptr, ptr @CurrentMemoryContext, align 8
  store ptr %53, ptr @CurrentMemoryContext, align 8
  %55 = getelementptr inbounds nuw i8, ptr %8, i64 40
  %56 = load ptr, ptr %55, align 8
  %57 = call i64 %56(ptr noundef nonnull %45, ptr noundef %44, ptr noundef nonnull %6) #9
  store ptr %54, ptr @CurrentMemoryContext, align 8
  %58 = getelementptr inbounds nuw i8, ptr %47, i64 4
  %59 = load i16, ptr %58, align 4
  %60 = and i16 %59, -3
  store i16 %60, ptr %58, align 4
  %61 = getelementptr inbounds nuw i8, ptr %47, i64 16
  %62 = load ptr, ptr %61, align 8
  %63 = load i32, ptr %62, align 8
  %64 = trunc i32 %63 to i16
  %65 = getelementptr inbounds nuw i8, ptr %47, i64 6
  store i16 %64, ptr %65, align 2
  call void @llvm.lifetime.end.p0(i64 1, ptr nonnull %6) #9
  ret ptr %47
}